libapt-inst.so.2.0 libapt-inst2.0 #MINVER#
* Build-Depends-Package: libapt-pkg-dev
 APTINST_2.0@APTINST_2.0 1.1~exp9
 _ZN10ExtractTar2GoER12pkgDirStream@APTINST_2.0 0.8.0
 _ZN10ExtractTar4DoneEb@APTINST_2.0 0.8.0
 _ZN10ExtractTar4DoneEv@APTINST_2.0 1.1~exp12
 _ZN10ExtractTar9StartGzipEv@APTINST_2.0 0.8.0
 _ZN10ExtractTarC1ER6FileFdyNSt7__cxx1112basic_stringIcSt11char_traitsIcESaIcEEE@APTINST_2.0 1.0.5
 _ZN10ExtractTarC2ER6FileFdyNSt7__cxx1112basic_stringIcSt11char_traitsIcESaIcEEE@APTINST_2.0 1.0.5
 _ZN10ExtractTarD0Ev@APTINST_2.0 0.8.0
 _ZN10ExtractTarD1Ev@APTINST_2.0 0.8.0
 _ZN10ExtractTarD2Ev@APTINST_2.0 0.8.0
 _ZN10debDebFile10GotoMemberEPKc@APTINST_2.0 0.8.0
 _ZN10debDebFile11CheckMemberEPKc@APTINST_2.0 0.8.0
 _ZN10debDebFile14ControlExtract6DoItemERN12pkgDirStream4ItemERi@APTINST_2.0 0.8.0
 _ZN10debDebFile14ExtractArchiveER12pkgDirStream@APTINST_2.0 0.8.0
 _ZN10debDebFile16ExtractTarMemberER12pkgDirStreamPKc@APTINST_2.0 0.9.15.4
 _ZN10debDebFile17MemControlExtract11TakeControlEPKvy@APTINST_2.0 1.0.5
 _ZN10debDebFile17MemControlExtract4ReadERS_@APTINST_2.0 0.8.0
 _ZN10debDebFile17MemControlExtract6DoItemERN12pkgDirStream4ItemERi@APTINST_2.0 0.8.0
 _ZN10debDebFile17MemControlExtract7ProcessERN12pkgDirStream4ItemEPKhyy@APTINST_2.0 1.0.5
 _ZN10debDebFileC1ER6FileFd@APTINST_2.0 0.8.0
 _ZN10debDebFileC2ER6FileFd@APTINST_2.0 0.8.0
 _ZN10pkgExtract12FinishedFileERN12pkgDirStream4ItemEi@APTINST_2.0 0.8.0
 _ZN10pkgExtract15CheckDirReplaceENSt7__cxx1112basic_stringIcSt11char_traitsIcESaIcEEEj@APTINST_2.0 0.8.0
 _ZN10pkgExtract16HandleOverwritesEN10pkgFLCache12NodeIteratorEb@APTINST_2.0 0.8.0
 _ZN10pkgExtract4FailERN12pkgDirStream4ItemEi@APTINST_2.0 0.8.0
 _ZN10pkgExtract6DoItemERN12pkgDirStream4ItemERi@APTINST_2.0 0.8.0
 _ZN10pkgExtract7AbortedEv@APTINST_2.0 0.8.0
 _ZN10pkgExtract8FinishedEv@APTINST_2.0 0.8.0
 _ZN10pkgExtractC1ER10pkgFLCacheN8pkgCache11VerIteratorE@APTINST_2.0 0.8.0
 _ZN10pkgExtractC2ER10pkgFLCacheN8pkgCache11VerIteratorE@APTINST_2.0 0.8.0
 _ZN10pkgFLCache10TreeLookupEPjPKcS2_mS0_b@APTINST_2.0 0.8.0
 _ZN10pkgFLCache11AddConfFileEPKcS1_RKNS_11PkgIteratorEPKh@APTINST_2.0 0.8.0
 _ZN10pkgFLCache12AddDiversionERKNS_11PkgIteratorEPKcS4_@APTINST_2.0 0.8.0
 _ZN10pkgFLCache14BeginDiverLoadEv@APTINST_2.0 0.8.0
 _ZN10pkgFLCache15FinishDiverLoadEv@APTINST_2.0 0.8.0
 _ZN10pkgFLCache6GetPkgEPKcS1_b@APTINST_2.0 0.8.0
 _ZN10pkgFLCache6HeaderC1Ev@APTINST_2.0 0.8.0
 _ZN10pkgFLCache6HeaderC2Ev@APTINST_2.0 0.8.0
 _ZN10pkgFLCache7GetNodeEPKcS1_jbb@APTINST_2.0 0.8.0
 _ZN10pkgFLCache8DropNodeEj@APTINST_2.0 0.8.0
 _ZN10pkgFLCache8HashNodeERKNS_12NodeIteratorE@APTINST_2.0 0.8.0
 _ZN10pkgFLCache9PrintTreeEjm@APTINST_2.0 0.8.0
 _ZN10pkgFLCacheC1ER11DynamicMMap@APTINST_2.0 0.8.0
 _ZN10pkgFLCacheC2ER11DynamicMMap@APTINST_2.0 0.8.0
 _ZN12pkgDirStream12FinishedFileERNS_4ItemEi@APTINST_2.0 0.8.0
 _ZN12pkgDirStream4FailERNS_4ItemEi@APTINST_2.0 0.8.0
 _ZN12pkgDirStream6DoItemERNS_4ItemERi@APTINST_2.0 0.8.0
 _ZN9ARArchive11LoadHeadersEv@APTINST_2.0 0.8.0
 _ZN9ARArchiveC1ER6FileFd@APTINST_2.0 0.8.0
 _ZN9ARArchiveC2ER6FileFd@APTINST_2.0 0.8.0
 _ZN9ARArchiveD1Ev@APTINST_2.0 0.8.0
 _ZN9ARArchiveD2Ev@APTINST_2.0 0.8.0
 _ZNK10pkgFLCache12NodeIterator11RealPackageEv@APTINST_2.0 0.8.0
 _ZNK10pkgFLCache6Header10CheckSizesERS0_@APTINST_2.0 0.8.0
 _ZNK9ARArchive10FindMemberEPKc@APTINST_2.0 0.8.0
 _ZNSt6vectorIN3APT13Configuration10CompressorESaIS2_EED1Ev@APTINST_2.0 0.8.12
 _ZNSt6vectorIN3APT13Configuration10CompressorESaIS2_EED2Ev@APTINST_2.0 0.8.12
 _ZNSt7__cxx1112basic_stringIcSt11char_traitsIcESaIcEE12_M_constructIPKcEEvT_S8_St20forward_iterator_tag@APTINST_2.0 1.7.0~alpha3~
 _ZNSt7__cxx1112basic_stringIcSt11char_traitsIcESaIcEE12_M_constructIPcEEvT_S7_St20forward_iterator_tag@APTINST_2.0 1.7.0~alpha3~
 _ZTI10ExtractTar@APTINST_2.0 0.8.0
 _ZTI10pkgExtract@APTINST_2.0 0.8.0
 _ZTI12pkgDirStream@APTINST_2.0 0.8.0
 _ZTIN10debDebFile14ControlExtractE@APTINST_2.0 0.8.0
 _ZTIN10debDebFile17MemControlExtractE@APTINST_2.0 0.8.0
 _ZTS10ExtractTar@APTINST_2.0 0.8.0
 _ZTS10pkgExtract@APTINST_2.0 0.8.0
 _ZTS12pkgDirStream@APTINST_2.0 0.8.0
 _ZTSN10debDebFile14ControlExtractE@APTINST_2.0 0.8.0
 _ZTSN10debDebFile17MemControlExtractE@APTINST_2.0 0.8.0
 _ZTV10ExtractTar@APTINST_2.0 0.8.0
 _ZTV10pkgExtract@APTINST_2.0 0.8.0
 _ZTV12pkgDirStream@APTINST_2.0 0.8.0
 _ZTVN10debDebFile14ControlExtractE@APTINST_2.0 0.8.0
 _ZTVN10debDebFile17MemControlExtractE@APTINST_2.0 0.8.0
